; Function Attrs: nofree norecurse nosync nounwind memory(argmem: readwrite) uwtable
define internal void @h264_h_loop_filter_chroma422_mbaff_intra_8_c(ptr noundef captures(none) %0, i64 noundef %1, i32 noundef %2, i32 noundef %3) #1 {
  br label %5

5:                                                ; preds = %4, %41
  %.0.i4 = phi i32 [ 0, %4 ], [ %43, %41 ]
  %.046.i3 = phi ptr [ %0, %4 ], [ %42, %41 ]
  %6 = getelementptr inbounds i8, ptr %.046.i3, i64 -1
  %7 = load i8, ptr %6, align 1, !tbaa !42
  %8 = zext i8 %7 to i32
  %9 = getelementptr inbounds i8, ptr %.046.i3, i64 -2
  %10 = load i8, ptr %9, align 1, !tbaa !42
  %11 = zext i8 %10 to i32
  %12 = load i8, ptr %.046.i3, align 1, !tbaa !42
  %13 = zext i8 %12 to i32
  %14 = getelementptr inbounds nuw i8, ptr %.046.i3, i64 1
  %15 = load i8, ptr %14, align 1, !tbaa !42
  %16 = zext i8 %15 to i32
  %17 = sub nsw i32 %8, %13
  %18 = tail call i32 @llvm.abs.i32(i32 %17, i1 true)
  %19 = icmp slt i32 %18, %2
  br i1 %19, label %20, label %41

20:                                               ; preds = %5
  %21 = sub nsw i32 %11, %8
  %22 = tail call i32 @llvm.abs.i32(i32 %21, i1 true)
  %23 = icmp slt i32 %22, %3
  br i1 %23, label %24, label %41

24:                                               ; preds = %20
  %25 = sub nsw i32 %16, %13
  %26 = tail call i32 @llvm.abs.i32(i32 %25, i1 true)
  %27 = icmp samesign ult i32 %26, %3
  br i1 %27, label %28, label %41

28:                                               ; preds = %24
  %29 = shl nuw nsw i32 %11, 1
  %30 = add nuw nsw i32 %8, 2
  %31 = add nuw nsw i32 %30, %29
  %32 = add nuw nsw i32 %31, %16
  %33 = lshr i32 %32, 2
  %34 = trunc nuw i32 %33 to i8
  store i8 %34, ptr %6, align 1, !tbaa !42
  %35 = shl nuw nsw i32 %16, 1
  %36 = add nuw nsw i32 %11, 2
  %37 = add nuw nsw i32 %36, %13
  %38 = add nuw nsw i32 %37, %35
  %39 = lshr i32 %38, 2
  %40 = trunc nuw i32 %39 to i8
  store i8 %40, ptr %.046.i3, align 1, !tbaa !42
  br label %41

41:                                               ; preds = %28, %24, %20, %5
  %42 = getelementptr inbounds i8, ptr %.046.i3, i64 %1
  %43 = add nuw nsw i32 %.0.i4, 1
  %exitcond.not = icmp eq i32 %43, 8
  br i1 %exitcond.not, label %h264_loop_filter_chroma_intra_8_c.exit, label %5, !llvm.loop !114

h264_loop_filter_chroma_intra_8_c.exit:           ; preds = %41
  ret void
}